	.file	"print_args.c"
	.text
	.section	.rodata
.LC0:
	.string	"argc = %d\n"
.LC1:
	.string	"argv[%d] = %s\n"
	.text
	.globl	main
	.type	main, @function
main:
.LFB0:
	.cfi_startproc
	leal	4(%esp), %ecx
	.cfi_def_cfa 1, 0
	andl	$-16, %esp
	pushl	-4(%ecx)
	pushl	%ebp
	.cfi_escape 0x10,0x5,0x2,0x75,0
	movl	%esp, %ebp
	pushl	%esi
	pushl	%ebx
	pushl	%ecx
	.cfi_escape 0xf,0x3,0x75,0x74,0x6
	.cfi_escape 0x10,0x6,0x2,0x75,0x7c
	.cfi_escape 0x10,0x3,0x2,0x75,0x78
	subl	$28, %esp
	call	__x86.get_pc_thunk.bx
	addl	$_GLOBAL_OFFSET_TABLE_, %ebx
	movl	%ecx, %esi
	subl	$8, %esp
	pushl	(%esi)
	leal	.LC0@GOTOFF(%ebx), %eax
	pushl	%eax
	call	printf@PLT
	addl	$16, %esp
	movl	$0, -28(%ebp)
	jmp	.L2
.L3:
	movl	-28(%ebp), %eax
	leal	0(,%eax,4), %edx
	movl	4(%esi), %eax
	addl	%edx, %eax
	movl	(%eax), %eax
	subl	$4, %esp
	pushl	%eax
	pushl	-28(%ebp)
	leal	.LC1@GOTOFF(%ebx), %eax
	pushl	%eax
	call	printf@PLT
	addl	$16, %esp
	addl	$1, -28(%ebp)
.L2:
	movl	-28(%ebp), %eax
	cmpl	(%esi), %eax
	jl	.L3
	movl	$0, %eax
	leal	-12(%ebp), %esp
	popl	%ecx
	.cfi_restore 1
	.cfi_def_cfa 1, 0
	popl	%ebx
	.cfi_restore 3
	popl	%esi
	.cfi_restore 6
	popl	%ebp
	.cfi_restore 5
	leal	-4(%ecx), %esp
	.cfi_def_cfa 4, 4
	ret
	.cfi_endproc
.LFE0:
	.size	main, .-main
	.section	.text.__x86.get_pc_thunk.bx,"axG",@progbits,__x86.get_pc_thunk.bx,comdat
	.globl	__x86.get_pc_thunk.bx
	.hidden	__x86.get_pc_thunk.bx
	.type	__x86.get_pc_thunk.bx, @function
__x86.get_pc_thunk.bx:
.LFB1:
	.cfi_startproc
	movl	(%esp), %ebx
	ret
	.cfi_endproc
.LFE1:
	.ident	"GCC: (Ubuntu 7.4.0-1ubuntu1~18.04.1) 7.4.0"
	.section	.note.GNU-stack,"",@progbits
